(lp1
(dp2
S'ibi'
p3
cnumpy.core.multiarray
scalar
p4
(cnumpy
dtype
p5
(S'f8'
I0
I1
tRp6
(I3
S'<'
NNNI-1
I-1
I0
tbS'\xbb\xcd\xd38S\xc0\xdb?'
tRp7
sS'heartRate'
p8
g4
(g6
S'\xb4\xa3K\x12^fa@'
tRp9
sS'stimulusName'
p10
Vnative_low_1
p11
sS'roiPercentage'
p12
F0.2480179248534988
sS'attentionPercentage'
p13
F0.95869134170522141
sS'brushEnabled'
p14
I01
sa(dp15
g3
g4
(g6
S'\xc2\x03\x12g\xc4\xad\xdd?'
tRp16
sg8
g4
(g6
S'\x99\xa5e\xfd\xcaC`@'
tRp17
sg10
Vnonnative_low_2
p18
sg12
F0.7128127112914131
sg13
F0.96729888816219756
sg14
I00
sa(dp19
g3
Fnan
sg8
Fnan
sg10
Vnative_low_2
p20
sg12
F0.32483660130718955
sg13
F0.25276722286469522
sg14
I00
sa(dp21
g3
Fnan
sg8
Fnan
sg10
Vnonnative_low_1
p22
sg12
F0.040000000000000001
sg13
F0.020438194898626555
sg14
I01
sa(dp23
g3
g4
(g6
S'\x98`\x82dK \xd9?'
tRp24
sg8
g4
(g6
S'B\x85\x10}djc@'
tRp25
sg10
Vnative_low_async_1
p26
sg12
F0.36601307189542481
sg13
F0.075817641228939539
sg14
I01
sa(dp27
g3
Fnan
sg8
Fnan
sg10
Vnative_low_async_2
p28
sg12
S'NA'
p29
sg13
F0
sg14
I00
sa.