(lp1
(dp2
S'scr_mean'
p3
cnumpy.core.multiarray
scalar
p4
(cnumpy
dtype
p5
(S'f8'
I0
I1
tRp6
(I3
S'<'
NNNI-1
I-1
I0
tbS'mu\xe1J\x06\x88N?'
tRp7
sS'ibi'
p8
g4
(g6
S'A"+\xc8\xcb\xcd\xe2?'
tRp9
sS'heartRate'
p10
g4
(g6
S'a\xd1\x0e\x19\xf0\xa9Y@'
tRp11
sS'scl_mean'
p12
g4
(g6
S'\x94\x919\xef\xc2\xdd\xda?'
tRp13
sS'stimulusName'
p14
Vnonnative_low_2
p15
sS'roiPercentage'
p16
F0.80248595266473688
sS'scr_max'
p17
g4
(g6
S'\xcfL\x8e<rxX?'
tRp18
sS'attentionPercentage'
p19
F0.96058227019954201
sS'scr_sd'
p20
g4
(g6
S'\xac\xac{l:E9?'
tRp21
sS'brushEnabled'
p22
I00
sS'scr_rate'
p23
F8.0769230769230766
sS'scl_sd'
p24
g4
(g6
S'\xfb\x89\x0b\x18\x8c-`?'
tRp25
sa(dp26
g3
g4
(g6
S'2\x80^\x00&\xbb\x98?'
tRp27
sg8
g4
(g6
S'\x87\xef\x0e:2\xc0\xe0?'
tRp28
sg10
g4
(g6
S'\xe0(yu\x8e\xa0^@'
tRp29
sg12
g4
(g6
S'\xa0\x95Jk\xcb-\xe0?'
tRp30
sg14
Vnonnative_low_1
p31
sg16
F0.74942528735632186
sg17
g4
(g6
S'2\x80^\x00&\xbb\x98?'
tRp32
sg19
F0.21347946998200557
sg20
g4
(g6
S'\x00\x00\x00\x00\x00\x00\x00\x00'
tRp33
sg22
I01
sg23
F1.1881188118811881
sg24
g4
(g6
S'\x9d4\xb9\x9a\xbd\xad\x9b?'
tRp34
sa(dp35
g3
g4
(g6
S'8\xd8/\xccu\x89[?'
tRp36
sg8
g4
(g6
S'|\x08\rqjk\xe2?'
tRp37
sg10
g4
(g6
S'\xdbO\xc6\xf8p-Z@'
tRp38
sg12
g4
(g6
S'\xb8\x9d\xc9\xc7,\xb0\xe0?'
tRp39
sg14
Vnative_low_1
p40
sg16
F0.93261685431593311
sg17
g4
(g6
S'\xe0\xe8\xedXF\x17f?'
tRp41
sg19
F0.96860541969596825
sg20
g4
(g6
S'\xde\xa6j\x13\xaf\xe9D?'
tRp42
sg22
I01
sg23
F4.7058823529411766
sg24
g4
(g6
S'.\x9c\x95@\r\x10s?'
tRp43
sa(dp44
g3
g4
(g6
S'\xb2\xd5\xa62\xf8\x7fL?'
tRp45
sg8
g4
(g6
S'\xc3\xf0\xed9\x8cM\xe2?'
tRp46
sg10
g4
(g6
S'D\x17\xd4\xb7\xccaZ@'
tRp47
sg12
g4
(g6
S'\xc65\xac\x18\xf1p\xe0?'
tRp48
sg14
Vnative_low_2
p49
sg16
F0.91691521090754158
sg17
g4
(g6
S'@\x8b\xd6\xbd\xf9\xd0Z?'
tRp50
sg19
F0.7754832314554766
sg20
g4
(g6
S'|7\xb6 \x9d\x878?'
tRp51
sg22
I00
sg23
F9.2307692307692299
sg24
g4
(g6
S'kkQ0.:`?'
tRp52
sa(dp53
g3
g4
(g6
S',`.\xe8\xfa\xedK?'
tRp54
sg8
g4
(g6
S'L\xf4\xf2y7\x80\xe2?'
tRp55
sg10
g4
(g6
S'y\x1e\x83\x9f\xd9\x0bZ@'
tRp56
sg12
g4
(g6
S'Y\xe8:>1B\xe0?'
tRp57
sg14
Vnative_low_async_1
p58
sg16
F0.89081519734415349
sg17
g4
(g6
S'\x16H\x0fm\x8fVQ?'
tRp59
sg19
F0.89590218109715791
sg20
g4
(g6
S'_j\xe5\xd7\x7fm-?'
tRp60
sg22
I01
sg23
F9.2307692307692299
sg24
g4
(g6
S'z\x0c\x00\xfc\xbc\xdaW?'
tRp61
sa(dp62
g3
g4
(g6
S'\xf3\x87\\\xaa&F~?'
tRp63
sg8
g4
(g6
S'\xbcyNHg\x04\xdd?'
tRp64
sg10
g4
(g6
S'\xb6d\xf3\xfc\x1a\xa3`@'
tRp65
sg12
g4
(g6
S'=\xe9\xdb1\x0ck\xe1?'
tRp66
sg14
Vnative_low_async_2
p67
sg16
F0.84017758046614877
sg17
g4
(g6
S'\x07\x94L\xd34h\x90?'
tRp68
sg19
F0.14887640449438203
sg20
g4
(g6
S'\x98\xc0Y\xc96\x91t?'
tRp69
sg22
I00
sg23
F5.882352941176471
sg24
g4
(g6
S'4\x0b\x95\xad,A\xa8?'
tRp70
sa.