(lp1
(dp2
S'scr_mean'
p3
cnumpy.core.multiarray
scalar
p4
(cnumpy
dtype
p5
(S'f8'
I0
I1
tRp6
(I3
S'<'
NNNI-1
I-1
I0
tbS'\xbe\x81\xe3\xef\xc4,\\?'
tRp7
sS'ibi'
p8
g4
(g6
S'\xa7 t\x94\xc2\xbf\xdc?'
tRp9
sS'heartRate'
p10
g4
(g6
S'\xbe$\xed\xfbD\xbe`@'
tRp11
sS'scl_mean'
p12
g4
(g6
S'\r\x03\xacCL?\xd6?'
tRp13
sS'stimulusName'
p14
Vnative_low_1
p15
sS'roiPercentage'
p16
F0.2473170731707317
sS'scr_max'
p17
g4
(g6
S'@\x80\x0c\xf4\xbd?j?'
tRp18
sS'attentionPercentage'
p19
F0.67746199603436885
sS'scr_sd'
p20
g4
(g6
S']\xe1/{\xaa]L?'
tRp21
sS'brushEnabled'
p22
I01
sS'scr_rate'
p23
F4.7058823529411766
sS'scl_sd'
p24
g4
(g6
S'lY\xea\xf9\xac\x14\x8a?'
tRp25
sa(dp26
g3
g4
(g6
S'\xa0^\x05\xe86\xa9\xbe?'
tRp27
sg8
g4
(g6
S'c\xb8\x95\xb9T@\xdc?'
tRp28
sg10
g4
(g6
S'\xa95\xcd;N\x14a@'
tRp29
sg12
g4
(g6
S'\xc75\xb1\xbd\xf3\x98\xd8?'
tRp30
sg14
Vnonnative_low_1
p31
sg16
F0.38207547169811323
sg17
g4
(g6
S'\x19N\xf0\xce\xc3\xdc\xc6?'
tRp32
sg19
F0.069349035001635584
sg20
g4
(g6
S'6\xa4\x92\xf0W\xe9\xa1?'
tRp33
sg22
I01
sg23
F4.615384615384615
sg24
g4
(g6
S'%\x87a\x97|\xdf\xa6?'
tRp34
sa(dp35
g3
g4
(g6
S'\x94~\xe0\xd9]\xb4\xb2?'
tRp36
sg8
g4
(g6
S'\x80\xe5+\xe9\x8c\x92\xd6?'
tRp37
sg10
g4
(g6
S'\x80\xce\xe1\x9b(de@'
tRp38
sg12
g4
(g6
S'\x08\xeds\xce\xd2.\xd9?'
tRp39
sg14
Vnative_low_2
p40
sg16
F0.5808656036446469
sg17
g4
(g6
S'[\x05^\xab\x91\xd2\xb9?'
tRp41
sg19
F0.07253800396563119
sg20
g4
(g6
S'\xa3\xd6AsMV\x91?'
tRp42
sg22
I00
sg23
F4.7058823529411766
sg24
g4
(g6
S'\x04u%\xe1\xe3#\xa4?'
tRp43
sa(dp44
g3
g4
(g6
S'\xc2\x8d+\x17\x05\x00\x9f?'
tRp45
sg8
g4
(g6
S'\x8e#\xd6\xe2S\x00\xdc?'
tRp46
sg10
g4
(g6
S'9EGr\xf9)a@'
tRp47
sg12
g4
(g6
S'H;\x13\x16\xa6`\xe8?'
tRp48
sg14
Vnonnative_low_2
p49
sg16
F0.31024930747922436
sg17
g4
(g6
S'\xdf\xb4[\x8a\xc0!\xaa?'
tRp50
sg19
F0.059044815178279357
sg20
g4
(g6
S'L\xd9\xba\xe7\x88N\x8d?'
tRp51
sg22
I00
sg23
F8.1553398058252426
sg24
g4
(g6
S'B\xcd\xe5\x14D\xbc\xbd?'
tRp52
sa(dp53
g3
g4
(g6
S'n\xf4{D\xeep\xc5?'
tRp54
sg8
Fnan
sg10
Fnan
sg12
g4
(g6
S'wm=\xd0\xd3\xfd\xec?'
tRp55
sg14
Vnative_low_async_1
p56
sg16
F0.44444444444444442
sg17
g4
(g6
S'1i\xd6\x8e\x9e\x94\xc9?'
tRp57
sg19
F0.017845340383344351
sg20
g4
(g6
S'\x0e\xd3i)\xc1\x8e\xa0?'
tRp58
sg22
I01
sg23
F2.4242424242424243
sg24
g4
(g6
S'\xe8\\\xeeuBP\xae?'
tRp59
sa(dp60
g3
S'NA'
p61
sg8
Fnan
sg10
Fnan
sg12
S'NA'
p62
sg14
Vnative_low_async_2
p63
sg16
F0.43693693693693691
sg17
g61
sg19
F0.073339940535183348
sg20
g61
sg22
I00
sg23
g61
sg24
g62
sa.