(lp1
(dp2
S'ibi'
p3
cnumpy.core.multiarray
scalar
p4
(cnumpy
dtype
p5
(S'f8'
I0
I1
tRp6
(I3
S'<'
NNNI-1
I-1
I0
tbS'*\xed\x99\xf5"a\xde?'
tRp7
sS'heartRate'
p8
g4
(g6
S'\xb7\xb3\x1e\x027\xbe_@'
tRp9
sS'stimulusName'
p10
Vnative_low_2
p11
sS'roiPercentage'
p12
F0.82437499999999997
sS'attentionPercentage'
p13
F0.79312623925974879
sS'brushEnabled'
p14
I00
sa(dp15
g3
g4
(g6
S'!8\x16\xb2G\xeb\xde?'
tRp16
sg8
g4
(g6
S'F\x04aj\n6_@'
tRp17
sg10
Vnonnative_low_1
p18
sg12
F0.66166666666666663
sg13
F0.098135426889106966
sg14
I01
sa(dp19
g3
g4
(g6
S'\xe1d\x80a\x9a\xe4\xde?'
tRp20
sg8
g4
(g6
S'J\x80\xfcv\xfbX_@'
tRp21
sg10
Vnonnative_low_2
p22
sg12
S'NA'
p23
sg13
F0
sg14
I00
sa(dp24
g3
g4
(g6
S'\x8ay\n\x82\x19\xd1\xde?'
tRp25
sg8
g4
(g6
S'\xfa>\xf9R\x04s_@'
tRp26
sg10
Vnative_low_1
p27
sg12
F0
sg13
F0.23314606741573032
sg14
I01
sa(dp28
g3
g4
(g6
S'\xb3\xa0\xf6\xd3\x1e\x1e\xde?'
tRp29
sg8
g4
(g6
S'a\x12\x82\xab\x11\x0f`@'
tRp30
sg10
Vnative_low_async_1
p31
sg12
F0.95622119815668205
sg13
F0.071711830799735629
sg14
I01
sa(dp32
g3
g4
(g6
S'/\xdf\xdd\xd9\xa4\x92\xde?'
tRp33
sg8
g4
(g6
S'\x92.f\x03\xd5\x98_@'
tRp34
sg10
Vnative_low_async_2
p35
sg12
F0.44156791248860527
sg13
F0.90631196298744221
sg14
I00
sa.