(lp1
(dp2
S'ibi'
p3
cnumpy.core.multiarray
scalar
p4
(cnumpy
dtype
p5
(S'f8'
I0
I1
tRp6
(I3
S'<'
NNNI-1
I-1
I0
tbS'\xa7 t\x94\xc2\xbf\xdc?'
tRp7
sS'heartRate'
p8
g4
(g6
S'\xbe$\xed\xfbD\xbe`@'
tRp9
sS'stimulusName'
p10
Vnative_low_1
p11
sS'roiPercentage'
p12
F0.2473170731707317
sS'attentionPercentage'
p13
F0.67746199603436885
sS'brushEnabled'
p14
I01
sa(dp15
g3
g4
(g6
S'c\xb8\x95\xb9T@\xdc?'
tRp16
sg8
g4
(g6
S'\xa95\xcd;N\x14a@'
tRp17
sg10
Vnonnative_low_1
p18
sg12
F0.38207547169811323
sg13
F0.069349035001635584
sg14
I01
sa(dp19
g3
g4
(g6
S'\x80\xe5+\xe9\x8c\x92\xd6?'
tRp20
sg8
g4
(g6
S'\x80\xce\xe1\x9b(de@'
tRp21
sg10
Vnative_low_2
p22
sg12
F0.5808656036446469
sg13
F0.07253800396563119
sg14
I00
sa(dp23
g3
g4
(g6
S'\x8e#\xd6\xe2S\x00\xdc?'
tRp24
sg8
g4
(g6
S'9EGr\xf9)a@'
tRp25
sg10
Vnonnative_low_2
p26
sg12
F0.31024930747922436
sg13
F0.059044815178279357
sg14
I00
sa(dp27
g3
Fnan
sg8
Fnan
sg10
Vnative_low_async_1
p28
sg12
F0.44444444444444442
sg13
F0.017845340383344351
sg14
I01
sa(dp29
g3
Fnan
sg8
Fnan
sg10
Vnative_low_async_2
p30
sg12
F0.43693693693693691
sg13
F0.073339940535183348
sg14
I00
sa.