(lp1
(dp2
S'ibi'
p3
cnumpy.core.multiarray
scalar
p4
(cnumpy
dtype
p5
(S'f8'
I0
I1
tRp6
(I3
S'<'
NNNI-1
I-1
I0
tbS'A"+\xc8\xcb\xcd\xe2?'
tRp7
sS'heartRate'
p8
g4
(g6
S'a\xd1\x0e\x19\xf0\xa9Y@'
tRp9
sS'stimulusName'
p10
Vnonnative_low_2
p11
sS'roiPercentage'
p12
F0.80248595266473688
sS'attentionPercentage'
p13
F0.96058227019954201
sS'brushEnabled'
p14
I00
sa(dp15
g3
g4
(g6
S'\x87\xef\x0e:2\xc0\xe0?'
tRp16
sg8
g4
(g6
S'\xe0(yu\x8e\xa0^@'
tRp17
sg10
Vnonnative_low_1
p18
sg12
F0.74942528735632186
sg13
F0.21347946998200557
sg14
I01
sa(dp19
g3
g4
(g6
S'|\x08\rqjk\xe2?'
tRp20
sg8
g4
(g6
S'\xdbO\xc6\xf8p-Z@'
tRp21
sg10
Vnative_low_1
p22
sg12
F0.93261685431593311
sg13
F0.96860541969596825
sg14
I01
sa(dp23
g3
g4
(g6
S'\xc3\xf0\xed9\x8cM\xe2?'
tRp24
sg8
g4
(g6
S'D\x17\xd4\xb7\xccaZ@'
tRp25
sg10
Vnative_low_2
p26
sg12
F0.91691521090754158
sg13
F0.7754832314554766
sg14
I00
sa(dp27
g3
g4
(g6
S'L\xf4\xf2y7\x80\xe2?'
tRp28
sg8
g4
(g6
S'y\x1e\x83\x9f\xd9\x0bZ@'
tRp29
sg10
Vnative_low_async_1
p30
sg12
F0.89081519734415349
sg13
F0.89590218109715791
sg14
I01
sa(dp31
g3
g4
(g6
S'\xbcyNHg\x04\xdd?'
tRp32
sg8
g4
(g6
S'\xb6d\xf3\xfc\x1a\xa3`@'
tRp33
sg10
Vnative_low_async_2
p34
sg12
F0.84017758046614877
sg13
F0.14887640449438203
sg14
I00
sa.