(lp1
(dp2
S'ibi'
p3
cnumpy.core.multiarray
scalar
p4
(cnumpy
dtype
p5
(S'f8'
I0
I1
tRp6
(I3
S'<'
NNNI-1
I-1
I0
tbS'K\xc9\x84t\x87\xaf\xdf?'
tRp7
sS'heartRate'
p8
g4
(g6
S'j\x9c[\x050\xe3^@'
tRp9
sS'stimulusName'
p10
Vnonnative_low_1
p11
sS'roiPercentage'
p12
F0.6533510874389703
sS'attentionPercentage'
p13
F0.36843826655764511
sS'brushEnabled'
p14
I01
sa(dp15
g3
g4
(g6
S'\t\xa0\xad\x16\xa2D\xdf?'
tRp16
sg8
g4
(g6
S'?;\x91\xfe"\xff^@'
tRp17
sg10
Vnonnative_low_2
p18
sg12
F0.76111744583808438
sg13
F0.28692949451987565
sg14
I00
sa(dp19
g3
g4
(g6
S'\xbc\x95{\xa3wX\xe0?'
tRp20
sg8
g4
(g6
S'\x86m7\x05t\xb9]@'
tRp21
sg10
Vnative_low_1
p22
sg12
F0.70363227258116356
sg13
F0.51396001982488027
sg14
I01
sa(dp23
g3
g4
(g6
S'a\x02\xea\xf9\x1c_\xe0?'
tRp24
sg8
g4
(g6
S'v\xf7&s\x19\x8e]@'
tRp25
sg10
Vnative_low_2
p26
sg12
F0.79919678714859432
sg13
F0.2879563852635057
sg14
I00
sa(dp27
g3
g4
(g6
S'\x80W\xfd\xbe\xf0\xcf\xdf?'
tRp28
sg8
g4
(g6
S'U\xda\x88E\x02\x84^@'
tRp29
sg10
Vnative_low_async_1
p30
sg12
F0.64251497005988023
sg13
F0.27594183740912093
sg14
I01
sa(dp31
g3
g4
(g6
S'A1\xde\xccoi\xe0?'
tRp32
sg8
g4
(g6
S'r\xd3\xc8#\x07\x82]@'
tRp33
sg10
Vnative_low_async_2
p34
sg12
F0.76472286374133946
sg13
F0.57237276933245207
sg14
I00
sa.