(lp1
(dp2
S'ibi'
p3
cnumpy.core.multiarray
scalar
p4
(cnumpy
dtype
p5
(S'f8'
I0
I1
tRp6
(I3
S'<'
NNNI-1
I-1
I0
tbS'\xbf\xf8\x17u_\xc3\xdb?'
tRp7
sS'heartRate'
p8
g4
(g6
S'4\xb5\xbd\x970fa@'
tRp9
sS'stimulusName'
p10
Vnative_low_2
p11
sS'roiPercentage'
p12
F0.055762081784386616
sS'attentionPercentage'
p13
F0.93341044282881691
sS'brushEnabled'
p14
I00
sa(dp15
g3
g4
(g6
S'\xf7\xa1LaWj\xdb?'
tRp16
sg8
g4
(g6
S'\x82\x12\xdd\x1d\xfa\x9ba@'
tRp17
sg10
Vnative_low_1
p18
sg12
F0.049665711556829036
sg13
F0.86486039980175122
sg14
I01
sa(dp19
g3
g4
(g6
S'\x14y\xec\x8d\x89\x1f\xdb?'
tRp20
sg8
g4
(g6
S'\x05\x0bY\x874\xcca@'
tRp21
sg10
Vnonnative_low_2
p22
sg12
F0.016645859342488557
sg13
F0.3930966792082447
sg14
I00
sa(dp23
g3
g4
(g6
S'\xb2\x11\x99\x03N\x00\xda?'
tRp24
sg8
g4
(g6
S'\xe0\x0c|\x08i\x91b@'
tRp25
sg10
Vnonnative_low_1
p26
sg12
F0
sg13
F0.35198744769874479
sg14
I01
sa(dp27
g3
g4
(g6
S'\xe6D7\xd2\x843\xdb?'
tRp28
sg8
g4
(g6
S'@\x87\xf9\xf2\x02\xc0a@'
tRp29
sg10
Vnative_low_async_1
p30
sg12
S'NA'
p31
sg13
g31
sg14
I01
sa(dp32
g3
g4
(g6
S',J\xaf-\x91\xb1\xdc?'
tRp33
sg8
g4
(g6
S"\x03U'\x19\x03\xeb`@"
tRp34
sg10
Vnative_low_async_2
p35
sg12
g31
sg13
g31
sg14
I00
sa.